target datalayout = "e-m:e-p270:32:32-p271:32:32-p272:64:64-i64:64-i128:128-f80:128-n8:16:32:64-S128"
target triple = "x86_64-pc-linux-gnu"

%struct._address = type { i32, i32, ptr, ptr }
%struct._packet_info = type { ptr, ptr, i32, i32, %struct.nstime_t, %struct.nstime_t, %struct.nstime_t, i8, ptr, ptr, ptr, ptr, %struct._address, %struct._address, %struct._address, %struct._address, %struct._address, %struct._address, i32, ptr, i8, [3 x i8], %struct.anon, i32, i32, i32, i32, ptr, i8, ptr, ptr, i16, i16, i32, i32, i16, i32, i32, ptr, ptr, ptr, i8, i8, i16, i16, i16, i32, i16, i16, ptr, ptr, ptr, ptr, ptr, i32, i32 }
%struct.nstime_t = type { i64, i32 }
%struct.anon = type { i8, [3 x i8] }
%struct._fragment_head = type { ptr, ptr, i32, i32, i32, i32, i32, i32, i32, i8, i32, ptr, ptr }
%struct._fragment_item = type { ptr, i32, i32, i32, i32, ptr }
%struct._fragment_items = type { ptr, ptr, ptr, ptr, ptr, ptr, ptr, ptr, ptr, ptr, ptr, ptr, ptr, ptr }
%struct._proto_node = type { ptr, ptr, ptr, ptr, ptr, ptr, ptr }
%struct.field_info = type { ptr, i32, i32, i32, i32, i32, i32, ptr, ptr, ptr, i32, i32 }

@.str.40 = private unnamed_addr constant [13 x i8] c"[Illegal %s]\00", align 1

; Function Attrs: null_pointer_is_valid sspstrong uwtable
define internal zeroext i1 @show_fragment_errs_in_col(ptr noundef %0, ptr noundef %1, ptr noundef %2) #1 {
  %4 = alloca i1, align 1
  %5 = alloca ptr, align 8
  %6 = alloca ptr, align 8
  %7 = alloca ptr, align 8
  store ptr %0, ptr %5, align 8
  store ptr %1, ptr %6, align 8
  store ptr %2, ptr %7, align 8
  %8 = load ptr, ptr %5, align 8
  %9 = getelementptr inbounds nuw %struct._fragment_head, ptr %8, i32 0, i32 10
  %10 = load i32, ptr %9, align 8
  %11 = and i32 %10, 28
  %12 = icmp ne i32 %11, 0
  br i1 %12, label %13, label %20

13:                                               ; preds = %3
  %14 = load ptr, ptr %7, align 8
  %15 = getelementptr inbounds nuw %struct._packet_info, ptr %14, i32 0, i32 1
  %16 = load ptr, ptr %15, align 8
  %17 = load ptr, ptr %6, align 8
  %18 = getelementptr inbounds nuw %struct._fragment_items, ptr %17, i32 0, i32 13
  %19 = load ptr, ptr %18, align 8
  call void (ptr, i32, ptr, ...) @col_add_fstr(ptr noundef %16, i32 noundef 25, ptr noundef @.str.40, ptr noundef %19)
  store i1 true, ptr %4, align 1
  br label %21

20:                                               ; preds = %3
  store i1 false, ptr %4, align 1
  br label %21

21:                                               ; preds = %20, %13
  %22 = load i1, ptr %4, align 1
  ret i1 %22
}

; Function Attrs: inlinehint nounwind null_pointer_is_valid sspstrong uwtable
define internal void @proto_item_set_generated(ptr noundef %0) #8 {
  %2 = alloca ptr, align 8
  store ptr %0, ptr %2, align 8
  %3 = load ptr, ptr %2, align 8
  %4 = icmp ne ptr %3, null
  br i1 %4, label %5, label %24

5:                                                ; preds = %1
  br label %6

6:                                                ; preds = %5
  %7 = load ptr, ptr %2, align 8
  %8 = getelementptr inbounds nuw %struct._proto_node, ptr %7, i32 0, i32 5
  %9 = load ptr, ptr %8, align 8
  %10 = icmp ne ptr %9, null
  br i1 %10, label %11, label %22

11:                                               ; preds = %6
  %12 = load ptr, ptr %2, align 8
  %13 = getelementptr inbounds nuw %struct._proto_node, ptr %12, i32 0, i32 5
  %14 = load ptr, ptr %13, align 8
  %15 = getelementptr inbounds nuw %struct.field_info, ptr %14, i32 0, i32 6
  %16 = load i32, ptr %15, align 4
  %17 = or i32 %16, 2
  %18 = load ptr, ptr %2, align 8
  %19 = getelementptr inbounds nuw %struct._proto_node, ptr %18, i32 0, i32 5
  %20 = load ptr, ptr %19, align 8
  %21 = getelementptr inbounds nuw %struct.field_info, ptr %20, i32 0, i32 6
  store i32 %17, ptr %21, align 4
  br label %22

22:                                               ; preds = %11, %6
  br label %23

23:                                               ; preds = %22
  br label %24

24:                                               ; preds = %23, %1
  ret void
}

; Function Attrs: null_pointer_is_valid sspstrong uwtable
define zeroext i1 @show_fragment_seq_tree(ptr noundef %0, ptr noundef %1, ptr noundef %2, ptr noundef %3, ptr noundef %4, ptr noundef %5) #1 {
  %7 = alloca ptr, align 8
  %8 = alloca ptr, align 8
  %9 = alloca ptr, align 8
  %10 = alloca ptr, align 8
  %11 = alloca ptr, align 8
  %12 = alloca ptr, align 8
  %13 = alloca i32, align 4
  %14 = alloca i32, align 4
  %15 = alloca i32, align 4
  %16 = alloca ptr, align 8
  %17 = alloca ptr, align 8
  %18 = alloca ptr, align 8
  %19 = alloca i8, align 1
  %20 = alloca ptr, align 8
  %21 = alloca ptr, align 8
  %22 = alloca ptr, align 8
  store ptr %0, ptr %7, align 8
  store ptr %1, ptr %8, align 8
  store ptr %2, ptr %9, align 8
  store ptr %3, ptr %10, align 8
  store ptr %4, ptr %11, align 8
  store ptr %5, ptr %12, align 8
  call void @llvm.lifetime.start.p0(i64 4, ptr %13) #16
  call void @llvm.lifetime.start.p0(i64 4, ptr %14) #16
  call void @llvm.lifetime.start.p0(i64 4, ptr %15) #16
  store i32 0, ptr %15, align 4
  call void @llvm.lifetime.start.p0(i64 8, ptr %16) #16
  call void @llvm.lifetime.start.p0(i64 8, ptr %17) #16
  call void @llvm.lifetime.start.p0(i64 8, ptr %18) #16
  call void @llvm.lifetime.start.p0(i64 1, ptr %19) #16
  %23 = load ptr, ptr %10, align 8
  %24 = getelementptr inbounds nuw %struct._packet_info, ptr %23, i32 0, i32 20
  store i8 0, ptr %24, align 8
  %25 = load ptr, ptr %9, align 8
  %26 = load ptr, ptr %8, align 8
  %27 = getelementptr inbounds nuw %struct._fragment_items, ptr %26, i32 0, i32 2
  %28 = load ptr, ptr %27, align 8
  %29 = load i32, ptr %28, align 4
  %30 = load ptr, ptr %11, align 8
  %31 = call ptr @proto_tree_add_item(ptr noundef %25, i32 noundef %29, ptr noundef %30, i32 noundef 0, i32 noundef -1, i32 noundef 0)
  %32 = load ptr, ptr %12, align 8
  store ptr %31, ptr %32, align 8
  %33 = load ptr, ptr %12, align 8
  %34 = load ptr, ptr %33, align 8
  call void @proto_item_set_generated(ptr noundef %34)
  %35 = load ptr, ptr %12, align 8
  %36 = load ptr, ptr %35, align 8
  %37 = load ptr, ptr %8, align 8
  %38 = getelementptr inbounds nuw %struct._fragment_items, ptr %37, i32 0, i32 1
  %39 = load ptr, ptr %38, align 8
  %40 = load i32, ptr %39, align 4
  %41 = call ptr @proto_item_add_subtree(ptr noundef %36, i32 noundef %40)
  store ptr %41, ptr %18, align 8
  store i32 0, ptr %13, align 4
  store i32 0, ptr %14, align 4
  store ptr null, ptr %17, align 8
  store i8 1, ptr %19, align 1
  %42 = load ptr, ptr %7, align 8
  %43 = getelementptr inbounds nuw %struct._fragment_head, ptr %42, i32 0, i32 0
  %44 = load ptr, ptr %43, align 8
  store ptr %44, ptr %16, align 8
  br label %45

45:                                               ; preds = %51, %6
  %46 = load ptr, ptr %16, align 8
  %47 = icmp ne ptr %46, null
  br i1 %47, label %48, label %55

48:                                               ; preds = %45
  %49 = load i32, ptr %15, align 4
  %50 = add i32 %49, 1
  store i32 %50, ptr %15, align 4
  br label %51

51:                                               ; preds = %48
  %52 = load ptr, ptr %16, align 8
  %53 = getelementptr inbounds nuw %struct._fragment_item, ptr %52, i32 0, i32 0
  %54 = load ptr, ptr %53, align 8
  store ptr %54, ptr %16, align 8
  br label %45, !llvm.loop !31

55:                                               ; preds = %45
  %56 = load ptr, ptr %7, align 8
  %57 = getelementptr inbounds nuw %struct._fragment_head, ptr %56, i32 0, i32 0
  %58 = load ptr, ptr %57, align 8
  store ptr %58, ptr %16, align 8
  br label %59

59:                                               ; preds = %93, %55
  %60 = load ptr, ptr %16, align 8
  %61 = icmp ne ptr %60, null
  br i1 %61, label %62, label %97

62:                                               ; preds = %59
  %63 = load ptr, ptr %17, align 8
  %64 = icmp eq ptr %63, null
  br i1 %64, label %73, label %65

65:                                               ; preds = %62
  %66 = load ptr, ptr %17, align 8
  %67 = getelementptr inbounds nuw %struct._fragment_item, ptr %66, i32 0, i32 2
  %68 = load i32, ptr %67, align 4
  %69 = load ptr, ptr %16, align 8
  %70 = getelementptr inbounds nuw %struct._fragment_item, ptr %69, i32 0, i32 2
  %71 = load i32, ptr %70, align 4
  %72 = icmp ne i32 %68, %71
  br i1 %72, label %73, label %80

73:                                               ; preds = %65, %62
  %74 = load i32, ptr %14, align 4
  store i32 %74, ptr %13, align 4
  %75 = load ptr, ptr %16, align 8
  %76 = getelementptr inbounds nuw %struct._fragment_item, ptr %75, i32 0, i32 3
  %77 = load i32, ptr %76, align 8
  %78 = load i32, ptr %14, align 4
  %79 = add i32 %78, %77
  store i32 %79, ptr %14, align 4
  br label %80

80:                                               ; preds = %73, %65
  %81 = load ptr, ptr %16, align 8
  store ptr %81, ptr %17, align 8
  %82 = load ptr, ptr %16, align 8
  %83 = load i32, ptr %13, align 4
  %84 = load ptr, ptr %8, align 8
  %85 = load ptr, ptr %18, align 8
  %86 = load ptr, ptr %12, align 8
  %87 = load ptr, ptr %86, align 8
  %88 = load i8, ptr %19, align 1, !range !13, !noundef !14
  %89 = trunc i8 %88 to i1
  %90 = load i32, ptr %15, align 4
  %91 = load ptr, ptr %11, align 8
  %92 = load ptr, ptr %10, align 8
  call void @show_fragment(ptr noundef %82, i32 noundef %83, ptr noundef %84, ptr noundef %85, ptr noundef %87, i1 noundef zeroext %89, i32 noundef %90, ptr noundef %91, ptr noundef %92)
  store i8 0, ptr %19, align 1
  br label %93

93:                                               ; preds = %80
  %94 = load ptr, ptr %16, align 8
  %95 = getelementptr inbounds nuw %struct._fragment_item, ptr %94, i32 0, i32 0
  %96 = load ptr, ptr %95, align 8
  store ptr %96, ptr %16, align 8
  br label %59, !llvm.loop !32

97:                                               ; preds = %59
  %98 = load ptr, ptr %8, align 8
  %99 = getelementptr inbounds nuw %struct._fragment_items, ptr %98, i32 0, i32 9
  %100 = load ptr, ptr %99, align 8
  %101 = icmp ne ptr %100, null
  br i1 %101, label %102, label %112

102:                                              ; preds = %97
  call void @llvm.lifetime.start.p0(i64 8, ptr %20) #16
  %103 = load ptr, ptr %18, align 8
  %104 = load ptr, ptr %8, align 8
  %105 = getelementptr inbounds nuw %struct._fragment_items, ptr %104, i32 0, i32 9
  %106 = load ptr, ptr %105, align 8
  %107 = load i32, ptr %106, align 4
  %108 = load ptr, ptr %11, align 8
  %109 = load i32, ptr %15, align 4
  %110 = call ptr @proto_tree_add_uint(ptr noundef %103, i32 noundef %107, ptr noundef %108, i32 noundef 0, i32 noundef 0, i32 noundef %109)
  store ptr %110, ptr %20, align 8
  %111 = load ptr, ptr %20, align 8
  call void @proto_item_set_generated(ptr noundef %111)
  call void @llvm.lifetime.end.p0(i64 8, ptr %20) #16
  br label %112

112:                                              ; preds = %102, %97
  %113 = load ptr, ptr %8, align 8
  %114 = getelementptr inbounds nuw %struct._fragment_items, ptr %113, i32 0, i32 11
  %115 = load ptr, ptr %114, align 8
  %116 = icmp ne ptr %115, null
  br i1 %116, label %117, label %128

117:                                              ; preds = %112
  call void @llvm.lifetime.start.p0(i64 8, ptr %21) #16
  %118 = load ptr, ptr %18, align 8
  %119 = load ptr, ptr %8, align 8
  %120 = getelementptr inbounds nuw %struct._fragment_items, ptr %119, i32 0, i32 11
  %121 = load ptr, ptr %120, align 8
  %122 = load i32, ptr %121, align 4
  %123 = load ptr, ptr %11, align 8
  %124 = load ptr, ptr %11, align 8
  %125 = call i32 @tvb_captured_length(ptr noundef %124)
  %126 = call ptr @proto_tree_add_uint(ptr noundef %118, i32 noundef %122, ptr noundef %123, i32 noundef 0, i32 noundef 0, i32 noundef %125)
  store ptr %126, ptr %21, align 8
  %127 = load ptr, ptr %21, align 8
  call void @proto_item_set_generated(ptr noundef %127)
  call void @llvm.lifetime.end.p0(i64 8, ptr %21) #16
  br label %128

128:                                              ; preds = %117, %112
  %129 = load ptr, ptr %8, align 8
  %130 = getelementptr inbounds nuw %struct._fragment_items, ptr %129, i32 0, i32 12
  %131 = load ptr, ptr %130, align 8
  %132 = icmp ne ptr %131, null
  br i1 %132, label %133, label %144

133:                                              ; preds = %128
  call void @llvm.lifetime.start.p0(i64 8, ptr %22) #16
  %134 = load ptr, ptr %18, align 8
  %135 = load ptr, ptr %8, align 8
  %136 = getelementptr inbounds nuw %struct._fragment_items, ptr %135, i32 0, i32 12
  %137 = load ptr, ptr %136, align 8
  %138 = load i32, ptr %137, align 4
  %139 = load ptr, ptr %11, align 8
  %140 = load ptr, ptr %11, align 8
  %141 = call i32 @tvb_captured_length(ptr noundef %140)
  %142 = call ptr @proto_tree_add_item(ptr noundef %134, i32 noundef %138, ptr noundef %139, i32 noundef 0, i32 noundef %141, i32 noundef 0)
  store ptr %142, ptr %22, align 8
  %143 = load ptr, ptr %22, align 8
  call void @proto_item_set_generated(ptr noundef %143)
  call void @llvm.lifetime.end.p0(i64 8, ptr %22) #16
  br label %144

144:                                              ; preds = %133, %128
  %145 = load ptr, ptr %7, align 8
  %146 = load ptr, ptr %8, align 8
  %147 = load ptr, ptr %10, align 8
  %148 = call zeroext i1 @show_fragment_errs_in_col(ptr noundef %145, ptr noundef %146, ptr noundef %147)
  call void @llvm.lifetime.end.p0(i64 1, ptr %19) #16
  call void @llvm.lifetime.end.p0(i64 8, ptr %18) #16
  call void @llvm.lifetime.end.p0(i64 8, ptr %17) #16
  call void @llvm.lifetime.end.p0(i64 8, ptr %16) #16
  call void @llvm.lifetime.end.p0(i64 4, ptr %15) #16
  call void @llvm.lifetime.end.p0(i64 4, ptr %14) #16
  call void @llvm.lifetime.end.p0(i64 4, ptr %13) #16
  ret i1 %148
}