; Function Attrs: null_pointer_is_valid sspstrong uwtable
define noundef zeroext i1 @show_fragment_seq_tree(ptr noundef readonly captures(none) %0, ptr noundef readonly captures(none) %1, ptr noundef %2, ptr noundef captures(none) initializes((272, 273)) %3, ptr noundef %4, ptr noundef captures(none) initializes((0, 8)) %5) local_unnamed_addr #2 {
  %7 = getelementptr inbounds nuw i8, ptr %3, i64 272
  store i8 0, ptr %7, align 8
  %8 = getelementptr inbounds nuw i8, ptr %1, i64 16
  %9 = load ptr, ptr %8, align 8
  %10 = load i32, ptr %9, align 4
  %11 = tail call ptr @proto_tree_add_item(ptr noundef %2, i32 noundef %10, ptr noundef %4, i32 noundef 0, i32 noundef -1, i32 noundef 0)
  store ptr %11, ptr %5, align 8
  %.not.i = icmp eq ptr %11, null
  br i1 %.not.i, label %proto_item_set_generated.exit, label %12

12:                                               ; preds = %6
  %13 = getelementptr inbounds nuw i8, ptr %11, i64 40
  %14 = load ptr, ptr %13, align 8
  %.not5.i = icmp eq ptr %14, null
  br i1 %.not5.i, label %proto_item_set_generated.exit, label %15

15:                                               ; preds = %12
  %16 = getelementptr inbounds nuw i8, ptr %14, i64 28
  %17 = load i32, ptr %16, align 4
  %18 = or i32 %17, 2
  store i32 %18, ptr %16, align 4
  %.pre = load ptr, ptr %5, align 8
  br label %proto_item_set_generated.exit

proto_item_set_generated.exit:                    ; preds = %6, %12, %15
  %19 = phi ptr [ null, %6 ], [ %11, %12 ], [ %.pre, %15 ]
  %20 = getelementptr inbounds nuw i8, ptr %1, i64 8
  %21 = load ptr, ptr %20, align 8
  %22 = load i32, ptr %21, align 4
  %23 = tail call ptr @proto_item_add_subtree(ptr noundef %19, i32 noundef %22)
  br label %24

24:                                               ; preds = %24, %proto_item_set_generated.exit
  %.055.in = phi ptr [ %0, %proto_item_set_generated.exit ], [ %.055, %24 ]
  %.053 = phi i32 [ 0, %proto_item_set_generated.exit ], [ %25, %24 ]
  %.055 = load ptr, ptr %.055.in, align 8
  %.not = icmp eq ptr %.055, null
  %25 = add i32 %.053, 1
  br i1 %.not, label %.preheader, label %24, !llvm.loop !44

.preheader:                                       ; preds = %24
  %.15676 = load ptr, ptr %0, align 8
  %.not6177 = icmp eq ptr %.15676, null
  br i1 %.not6177, label %._crit_edge, label %.lr.ph

.lr.ph:                                           ; preds = %.preheader, %36
  %.15682 = phi ptr [ %.156, %36 ], [ %.15676, %.preheader ]
  %.081 = phi i32 [ %.1, %36 ], [ 0, %.preheader ]
  %.05180 = phi i32 [ %.152, %36 ], [ 0, %.preheader ]
  %.05479 = phi i1 [ false, %36 ], [ true, %.preheader ]
  %.05778 = phi ptr [ %.15682, %36 ], [ null, %.preheader ]
  %26 = icmp eq ptr %.05778, null
  br i1 %26, label %32, label %27

27:                                               ; preds = %.lr.ph
  %28 = getelementptr inbounds nuw i8, ptr %.05778, i64 12
  %29 = load i32, ptr %28, align 4
  %30 = getelementptr inbounds nuw i8, ptr %.15682, i64 12
  %31 = load i32, ptr %30, align 4
  %.not65 = icmp eq i32 %29, %31
  br i1 %.not65, label %36, label %32

32:                                               ; preds = %27, %.lr.ph
  %33 = getelementptr inbounds nuw i8, ptr %.15682, i64 16
  %34 = load i32, ptr %33, align 8
  %35 = add i32 %34, %.05180
  br label %36

36:                                               ; preds = %32, %27
  %.152 = phi i32 [ %35, %32 ], [ %.05180, %27 ]
  %.1 = phi i32 [ %.05180, %32 ], [ %.081, %27 ]
  %37 = load ptr, ptr %5, align 8
  tail call fastcc void @show_fragment(ptr noundef %.15682, i32 noundef %.1, ptr noundef %1, ptr noundef %23, ptr noundef %37, i1 noundef zeroext %.05479, i32 noundef %.053, ptr noundef %4, ptr noundef %3)
  %.156 = load ptr, ptr %.15682, align 8
  %.not61 = icmp eq ptr %.156, null
  br i1 %.not61, label %._crit_edge, label %.lr.ph, !llvm.loop !45

._crit_edge:                                      ; preds = %36, %.preheader
  %38 = getelementptr inbounds nuw i8, ptr %1, i64 72
  %39 = load ptr, ptr %38, align 8
  %.not62 = icmp eq ptr %39, null
  br i1 %.not62, label %proto_item_set_generated.exit68, label %40

40:                                               ; preds = %._crit_edge
  %41 = load i32, ptr %39, align 4
  %42 = tail call ptr @proto_tree_add_uint(ptr noundef %23, i32 noundef %41, ptr noundef %4, i32 noundef 0, i32 noundef 0, i32 noundef %.053)
  %.not.i66 = icmp eq ptr %42, null
  br i1 %.not.i66, label %proto_item_set_generated.exit68, label %43

43:                                               ; preds = %40
  %44 = getelementptr inbounds nuw i8, ptr %42, i64 40
  %45 = load ptr, ptr %44, align 8
  %.not5.i67 = icmp eq ptr %45, null
  br i1 %.not5.i67, label %proto_item_set_generated.exit68, label %46

46:                                               ; preds = %43
  %47 = getelementptr inbounds nuw i8, ptr %45, i64 28
  %48 = load i32, ptr %47, align 4
  %49 = or i32 %48, 2
  store i32 %49, ptr %47, align 4
  br label %proto_item_set_generated.exit68

proto_item_set_generated.exit68:                  ; preds = %46, %43, %40, %._crit_edge
  %50 = getelementptr inbounds nuw i8, ptr %1, i64 88
  %51 = load ptr, ptr %50, align 8
  %.not63 = icmp eq ptr %51, null
  br i1 %.not63, label %proto_item_set_generated.exit71, label %52

52:                                               ; preds = %proto_item_set_generated.exit68
  %53 = load i32, ptr %51, align 4
  %54 = tail call i32 @tvb_captured_length(ptr noundef %4)
  %55 = tail call ptr @proto_tree_add_uint(ptr noundef %23, i32 noundef %53, ptr noundef %4, i32 noundef 0, i32 noundef 0, i32 noundef %54)
  %.not.i69 = icmp eq ptr %55, null
  br i1 %.not.i69, label %proto_item_set_generated.exit71, label %56

56:                                               ; preds = %52
  %57 = getelementptr inbounds nuw i8, ptr %55, i64 40
  %58 = load ptr, ptr %57, align 8
  %.not5.i70 = icmp eq ptr %58, null
  br i1 %.not5.i70, label %proto_item_set_generated.exit71, label %59

59:                                               ; preds = %56
  %60 = getelementptr inbounds nuw i8, ptr %58, i64 28
  %61 = load i32, ptr %60, align 4
  %62 = or i32 %61, 2
  store i32 %62, ptr %60, align 4
  br label %proto_item_set_generated.exit71

proto_item_set_generated.exit71:                  ; preds = %59, %56, %52, %proto_item_set_generated.exit68
  %63 = getelementptr inbounds nuw i8, ptr %1, i64 96
  %64 = load ptr, ptr %63, align 8
  %.not64 = icmp eq ptr %64, null
  br i1 %.not64, label %proto_item_set_generated.exit74, label %65

65:                                               ; preds = %proto_item_set_generated.exit71
  %66 = load i32, ptr %64, align 4
  %67 = tail call i32 @tvb_captured_length(ptr noundef %4)
  %68 = tail call ptr @proto_tree_add_item(ptr noundef %23, i32 noundef %66, ptr noundef %4, i32 noundef 0, i32 noundef %67, i32 noundef 0)
  %.not.i72 = icmp eq ptr %68, null
  br i1 %.not.i72, label %proto_item_set_generated.exit74, label %69

69:                                               ; preds = %65
  %70 = getelementptr inbounds nuw i8, ptr %68, i64 40
  %71 = load ptr, ptr %70, align 8
  %.not5.i73 = icmp eq ptr %71, null
  br i1 %.not5.i73, label %proto_item_set_generated.exit74, label %72

72:                                               ; preds = %69
  %73 = getelementptr inbounds nuw i8, ptr %71, i64 28
  %74 = load i32, ptr %73, align 4
  %75 = or i32 %74, 2
  store i32 %75, ptr %73, align 4
  br label %proto_item_set_generated.exit74

proto_item_set_generated.exit74:                  ; preds = %72, %69, %65, %proto_item_set_generated.exit71
  %76 = getelementptr i8, ptr %0, i64 48
  %.val = load i32, ptr %76, align 8
  %77 = and i32 %.val, 28
  %.not.i75 = icmp ne i32 %77, 0
  br i1 %.not.i75, label %78, label %show_fragment_errs_in_col.exit

78:                                               ; preds = %proto_item_set_generated.exit74
  %79 = getelementptr inbounds nuw i8, ptr %3, i64 8
  %80 = load ptr, ptr %79, align 8
  %81 = getelementptr inbounds nuw i8, ptr %1, i64 104
  %82 = load ptr, ptr %81, align 8
  tail call void (ptr, i32, ptr, ...) @col_add_fstr(ptr noundef %80, i32 noundef 25, ptr noundef nonnull @.str.40, ptr noundef %82)
  br label %show_fragment_errs_in_col.exit

show_fragment_errs_in_col.exit:                   ; preds = %proto_item_set_generated.exit74, %78
  ret i1 %.not.i75
}